; ModuleID = '17/1484.c'
source_filename = "17/1484.c"
target datalayout = "e-m:e-p270:32:32-p271:32:32-p272:64:64-i64:64-f80:128-n8:16:32:64-S128"
target triple = "x86_64-pc-linux-gnu"

@j = dso_local global i32 1, align 4
@.str = private unnamed_addr constant [3 x i8] c"%s\00", align 1
@.str.1 = private unnamed_addr constant [4 x i8] c"%s\0A\00", align 1

; Function Attrs: noinline nounwind uwtable
define dso_local i32 @main() #0 {
  %1 = alloca i32, align 4
  %2 = alloca [101 x i8], align 16
  %3 = alloca i32, align 4
  %4 = alloca i32, align 4
  %5 = alloca i32, align 4
  store i32 0, i32* %1, align 4
  %6 = getelementptr inbounds [101 x i8], [101 x i8]* %2, i64 0, i64 0
  store i8 0, i8* %6, align 16
  br label %7

7:                                                ; preds = %0
  %8 = getelementptr inbounds [101 x i8], [101 x i8]* %2, i64 0, i64 0
  %9 = call i32 (i8*, ...) @__isoc99_scanf(i8* getelementptr inbounds ([3 x i8], [3 x i8]* @.str, i64 0, i64 0), i8* %8)
  %10 = getelementptr inbounds [101 x i8], [101 x i8]* %2, i64 0, i64 0
  %11 = load i8, i8* %10, align 16
  %12 = sext i8 %11 to i32
  %13 = icmp eq i32 %12, 0
  br i1 %13, label %14, label %15

14:                                               ; preds = %7
  store i32 0, i32* %1, align 4
  br label %120

15:                                               ; preds = %7
  %16 = getelementptr inbounds [101 x i8], [101 x i8]* %2, i64 0, i64 0
  %17 = call i32 (i8*, ...) @printf(i8* getelementptr inbounds ([4 x i8], [4 x i8]* @.str.1, i64 0, i64 0), i8* %16)
  br label %18

18:                                               ; preds = %15
  %19 = getelementptr inbounds [101 x i8], [101 x i8]* %2, i64 0, i64 0
  %20 = call i64 @strlen(i8* %19) #3
  %21 = trunc i64 %20 to i32
  store i32 %21, i32* %3, align 4
  %22 = load i32, i32* %3, align 4
  %23 = sub nsw i32 %22, 1
  store i32 %23, i32* %4, align 4
  br label %24

24:                                               ; preds = %80, %18
  %25 = load i32, i32* %4, align 4
  %26 = icmp sge i32 %25, 0
  br i1 %26, label %27, label %83

27:                                               ; preds = %24
  %28 = load i32, i32* %4, align 4
  %29 = sext i32 %28 to i64
  %30 = getelementptr inbounds [101 x i8], [101 x i8]* %2, i64 0, i64 %29
  %31 = load i8, i8* %30, align 1
  %32 = sext i8 %31 to i32
  %33 = icmp ne i32 %32, 40
  br i1 %33, label %34, label %45

34:                                               ; preds = %27
  %35 = load i32, i32* %4, align 4
  %36 = sext i32 %35 to i64
  %37 = getelementptr inbounds [101 x i8], [101 x i8]* %2, i64 0, i64 %36
  %38 = load i8, i8* %37, align 1
  %39 = sext i8 %38 to i32
  %40 = icmp ne i32 %39, 41
  br i1 %40, label %41, label %45

41:                                               ; preds = %34
  %42 = load i32, i32* %4, align 4
  %43 = sext i32 %42 to i64
  %44 = getelementptr inbounds [101 x i8], [101 x i8]* %2, i64 0, i64 %43
  store i8 32, i8* %44, align 1
  br label %79

45:                                               ; preds = %34, %27
  %46 = load i32, i32* %4, align 4
  %47 = sext i32 %46 to i64
  %48 = getelementptr inbounds [101 x i8], [101 x i8]* %2, i64 0, i64 %47
  %49 = load i8, i8* %48, align 1
  %50 = sext i8 %49 to i32
  %51 = icmp eq i32 %50, 40
  br i1 %51, label %52, label %78

52:                                               ; preds = %45
  %53 = load i32, i32* %4, align 4
  store i32 %53, i32* %5, align 4
  br label %54

54:                                               ; preds = %74, %52
  %55 = load i32, i32* %5, align 4
  %56 = load i32, i32* %3, align 4
  %57 = sub nsw i32 %56, 1
  %58 = icmp sle i32 %55, %57
  br i1 %58, label %59, label %77

59:                                               ; preds = %54
  %60 = load i32, i32* %5, align 4
  %61 = sext i32 %60 to i64
  %62 = getelementptr inbounds [101 x i8], [101 x i8]* %2, i64 0, i64 %61
  %63 = load i8, i8* %62, align 1
  %64 = sext i8 %63 to i32
  %65 = icmp eq i32 %64, 41
  br i1 %65, label %66, label %73

66:                                               ; preds = %59
  %67 = load i32, i32* %4, align 4
  %68 = sext i32 %67 to i64
  %69 = getelementptr inbounds [101 x i8], [101 x i8]* %2, i64 0, i64 %68
  store i8 32, i8* %69, align 1
  %70 = load i32, i32* %5, align 4
  %71 = sext i32 %70 to i64
  %72 = getelementptr inbounds [101 x i8], [101 x i8]* %2, i64 0, i64 %71
  store i8 32, i8* %72, align 1
  br label %77

73:                                               ; preds = %59
  br label %74

74:                                               ; preds = %73
  %75 = load i32, i32* %5, align 4
  %76 = add nsw i32 %75, 1
  store i32 %76, i32* %5, align 4
  br label %54

77:                                               ; preds = %66, %54
  br label %78

78:                                               ; preds = %77, %45
  br label %79

79:                                               ; preds = %78, %41
  br label %80

80:                                               ; preds = %79
  %81 = load i32, i32* %4, align 4
  %82 = add nsw i32 %81, -1
  store i32 %82, i32* %4, align 4
  br label %24

83:                                               ; preds = %24
  store i32 0, i32* %4, align 4
  br label %84

84:                                               ; preds = %113, %83
  %85 = load i32, i32* %4, align 4
  %86 = load i32, i32* %3, align 4
  %87 = sub nsw i32 %86, 1
  %88 = icmp sle i32 %85, %87
  br i1 %88, label %89, label %116

89:                                               ; preds = %84
  %90 = load i32, i32* %4, align 4
  %91 = sext i32 %90 to i64
  %92 = getelementptr inbounds [101 x i8], [101 x i8]* %2, i64 0, i64 %91
  %93 = load i8, i8* %92, align 1
  %94 = sext i8 %93 to i32
  %95 = icmp eq i32 %94, 40
  br i1 %95, label %96, label %100

96:                                               ; preds = %89
  %97 = load i32, i32* %4, align 4
  %98 = sext i32 %97 to i64
  %99 = getelementptr inbounds [101 x i8], [101 x i8]* %2, i64 0, i64 %98
  store i8 36, i8* %99, align 1
  br label %112

100:                                              ; preds = %89
  %101 = load i32, i32* %4, align 4
  %102 = sext i32 %101 to i64
  %103 = getelementptr inbounds [101 x i8], [101 x i8]* %2, i64 0, i64 %102
  %104 = load i8, i8* %103, align 1
  %105 = sext i8 %104 to i32
  %106 = icmp eq i32 %105, 41
  br i1 %106, label %107, label %111

107:                                              ; preds = %100
  %108 = load i32, i32* %4, align 4
  %109 = sext i32 %108 to i64
  %110 = getelementptr inbounds [101 x i8], [101 x i8]* %2, i64 0, i64 %109
  store i8 63, i8* %110, align 1
  br label %111

111:                                              ; preds = %107, %100
  br label %112

112:                                              ; preds = %111, %96
  br label %113

113:                                              ; preds = %112
  %114 = load i32, i32* %4, align 4
  %115 = add nsw i32 %114, 1
  store i32 %115, i32* %4, align 4
  br label %84

116:                                              ; preds = %84
  %117 = getelementptr inbounds [101 x i8], [101 x i8]* %2, i64 0, i64 0
  %118 = call i32 (i8*, ...) @printf(i8* getelementptr inbounds ([4 x i8], [4 x i8]* @.str.1, i64 0, i64 0), i8* %117)
  %119 = call i32 @main()
  store i32 %119, i32* %1, align 4
  br label %120

120:                                              ; preds = %116, %14
  %121 = load i32, i32* %1, align 4
  ret i32 %121
}

declare dso_local i32 @__isoc99_scanf(i8*, ...) #1

declare dso_local i32 @printf(i8*, ...) #1

; Function Attrs: nounwind readonly
declare dso_local i64 @strlen(i8*) #2


!llvm.module.flags = !{!0}
!llvm.ident = !{!1}

!0 = !{i32 1, !"wchar_size", i32 4}
!1 = !{!"clang version 10.0.0-4ubuntu1 "}
